; Function Attrs: null_pointer_is_valid sspstrong uwtable
define internal i32 @dissect_rtmp_request(ptr noundef %0, ptr noundef readonly captures(none) %1, ptr noundef %2, ptr readnone captures(none) %3) #1 {
  %5 = getelementptr inbounds nuw i8, ptr %1, i64 8
  %6 = load ptr, ptr %5, align 8
  tail call void @col_set_str(ptr noundef %6, i32 noundef 35, ptr noundef nonnull @.str.234)
  %7 = load ptr, ptr %5, align 8
  tail call void @col_clear(ptr noundef %7, i32 noundef 25)
  %8 = tail call zeroext i8 @tvb_get_uint8(ptr noundef %0, i32 noundef 0)
  %9 = load ptr, ptr %5, align 8
  %10 = zext i8 %8 to i32
  %11 = tail call ptr @val_to_str(i32 noundef %10, ptr noundef nonnull @rtmp_function_vals, ptr noundef nonnull @.str.390)
  tail call void @col_add_str(ptr noundef %9, i32 noundef 25, ptr noundef %11)
  %.not = icmp eq ptr %2, null
  br i1 %.not, label %19, label %12

12:                                               ; preds = %4
  %13 = load i32, ptr @proto_rtmp, align 4
  %14 = tail call ptr @proto_tree_add_item(ptr noundef nonnull %2, i32 noundef %13, ptr noundef %0, i32 noundef 0, i32 noundef 1, i32 noundef 0)
  %15 = load i32, ptr @ett_rtmp, align 4
  %16 = tail call ptr @proto_item_add_subtree(ptr noundef %14, i32 noundef %15)
  %17 = load i32, ptr @hf_rtmp_function, align 4
  %18 = tail call ptr @proto_tree_add_uint(ptr noundef %16, i32 noundef %17, ptr noundef %0, i32 noundef 0, i32 noundef 1, i32 noundef %10)
  br label %19

19:                                               ; preds = %12, %4
  %20 = tail call i32 @tvb_captured_length(ptr noundef %0)
  ret i32 %20
}